target datalayout = "e-m:e-p270:32:32-p271:32:32-p272:64:64-i64:64-i128:128-f80:128-n8:16:32:64-S128"
target triple = "x86_64-pc-linux-gnu"

%struct.UTrie2 = type { ptr, ptr, ptr, i32, i32, i16, i16, i32, i32, i32, i32, ptr, i32, i8, i8, i16, ptr }
%struct.UNewTrie2 = type { [544 x i32], [35488 x i32], ptr, i32, i32, i32, i32, i32, i32, i32, i32, i32, i8, [34852 x i32] }
%struct.NewTrieAndStatus = type { ptr, i32, i8 }

; Function Attrs: mustprogress uwtable
define internal void @_ZL5set32P9UNewTrie2iajP10UErrorCode(ptr noundef %0, i32 noundef %1, i8 noundef signext %2, i32 noundef %3, ptr noundef %4) #0 {
  %6 = alloca ptr, align 8
  %7 = alloca i32, align 4
  %8 = alloca i8, align 1
  %9 = alloca i32, align 4
  %10 = alloca ptr, align 8
  %11 = alloca i32, align 4
  %12 = alloca i32, align 4
  store ptr %0, ptr %6, align 8, !tbaa !13
  store i32 %1, ptr %7, align 4, !tbaa !3
  store i8 %2, ptr %8, align 1, !tbaa !96
  store i32 %3, ptr %9, align 4, !tbaa !3
  store ptr %4, ptr %10, align 8, !tbaa !7
  call void @llvm.lifetime.start.p0(i64 4, ptr %11) #9
  %13 = load ptr, ptr %6, align 8, !tbaa !13
  %14 = icmp eq ptr %13, null
  br i1 %14, label %20, label %15

15:                                               ; preds = %5
  %16 = load ptr, ptr %6, align 8, !tbaa !13
  %17 = getelementptr inbounds nuw %struct.UNewTrie2, ptr %16, i32 0, i32 12
  %18 = load i8, ptr %17, align 4, !tbaa !31
  %19 = icmp ne i8 %18, 0
  br i1 %19, label %20, label %22

20:                                               ; preds = %15, %5
  %21 = load ptr, ptr %10, align 8, !tbaa !7
  store i32 30, ptr %21, align 4, !tbaa !9
  store i32 1, ptr %12, align 4
  br label %42

22:                                               ; preds = %15
  %23 = load ptr, ptr %6, align 8, !tbaa !13
  %24 = load i32, ptr %7, align 4, !tbaa !3
  %25 = load i8, ptr %8, align 1, !tbaa !96
  %26 = call noundef i32 @_ZL12getDataBlockP9UNewTrie2ia(ptr noundef %23, i32 noundef %24, i8 noundef signext %25)
  store i32 %26, ptr %11, align 4, !tbaa !3
  %27 = load i32, ptr %11, align 4, !tbaa !3
  %28 = icmp slt i32 %27, 0
  br i1 %28, label %29, label %31

29:                                               ; preds = %22
  %30 = load ptr, ptr %10, align 8, !tbaa !7
  store i32 7, ptr %30, align 4, !tbaa !9
  store i32 1, ptr %12, align 4
  br label %42

31:                                               ; preds = %22
  %32 = load i32, ptr %9, align 4, !tbaa !3
  %33 = load ptr, ptr %6, align 8, !tbaa !13
  %34 = getelementptr inbounds nuw %struct.UNewTrie2, ptr %33, i32 0, i32 2
  %35 = load ptr, ptr %34, align 8, !tbaa !24
  %36 = load i32, ptr %11, align 4, !tbaa !3
  %37 = load i32, ptr %7, align 4, !tbaa !3
  %38 = and i32 %37, 31
  %39 = add nsw i32 %36, %38
  %40 = sext i32 %39 to i64
  %41 = getelementptr inbounds i32, ptr %35, i64 %40
  store i32 %32, ptr %41, align 4, !tbaa !3
  store i32 0, ptr %12, align 4
  br label %42

42:                                               ; preds = %31, %29, %20
  call void @llvm.lifetime.end.p0(i64 4, ptr %11) #9
  %43 = load i32, ptr %12, align 4
  switch i32 %43, label %45 [
    i32 0, label %44
    i32 1, label %44
  ]

44:                                               ; preds = %42, %42
  ret void

45:                                               ; preds = %42
  unreachable
}

; Function Attrs: inlinehint mustprogress nounwind uwtable
define internal noundef signext i8 @_ZL9U_FAILURE10UErrorCode(i32 noundef %0) #2 {
  %2 = alloca i32, align 4
  store i32 %0, ptr %2, align 4, !tbaa !9
  %3 = load i32, ptr %2, align 4, !tbaa !9
  %4 = icmp sgt i32 %3, 0
  %5 = zext i1 %4 to i8
  ret i8 %5
}

; Function Attrs: inlinehint mustprogress nounwind uwtable
define internal noundef signext i8 @_ZL9U_SUCCESS10UErrorCode(i32 noundef %0) #2 {
  %2 = alloca i32, align 4
  store i32 %0, ptr %2, align 4, !tbaa !9
  %3 = load i32, ptr %2, align 4, !tbaa !9
  %4 = icmp sle i32 %3, 0
  %5 = zext i1 %4 to i8
  ret i8 %5
}

; Function Attrs: mustprogress uwtable
define void @utrie2_set32_77(ptr noundef %0, i32 noundef %1, i32 noundef %2, ptr noundef %3) #0 {
  %5 = alloca ptr, align 8
  %6 = alloca i32, align 4
  %7 = alloca i32, align 4
  %8 = alloca ptr, align 8
  store ptr %0, ptr %5, align 8, !tbaa !11
  store i32 %1, ptr %6, align 4, !tbaa !3
  store i32 %2, ptr %7, align 4, !tbaa !3
  store ptr %3, ptr %8, align 8, !tbaa !7
  %9 = load ptr, ptr %8, align 8, !tbaa !7
  %10 = load i32, ptr %9, align 4, !tbaa !9
  %11 = call noundef signext i8 @_ZL9U_FAILURE10UErrorCode(i32 noundef %10)
  %12 = icmp ne i8 %11, 0
  br i1 %12, label %13, label %14

13:                                               ; preds = %4
  br label %26

14:                                               ; preds = %4
  %15 = load i32, ptr %6, align 4, !tbaa !3
  %16 = icmp ugt i32 %15, 1114111
  br i1 %16, label %17, label %19

17:                                               ; preds = %14
  %18 = load ptr, ptr %8, align 8, !tbaa !7
  store i32 1, ptr %18, align 4, !tbaa !9
  br label %26

19:                                               ; preds = %14
  %20 = load ptr, ptr %5, align 8, !tbaa !11
  %21 = getelementptr inbounds nuw %struct.UTrie2, ptr %20, i32 0, i32 16
  %22 = load ptr, ptr %21, align 8, !tbaa !23
  %23 = load i32, ptr %6, align 4, !tbaa !3
  %24 = load i32, ptr %7, align 4, !tbaa !3
  %25 = load ptr, ptr %8, align 8, !tbaa !7
  call void @_ZL5set32P9UNewTrie2iajP10UErrorCode(ptr noundef %22, i32 noundef %23, i8 noundef signext 1, i32 noundef %24, ptr noundef %25)
  br label %26

26:                                               ; preds = %19, %17, %13
  ret void
}

; Function Attrs: mustprogress uwtable
define internal noundef signext i8 @_ZL13copyEnumRangePKviij(ptr noundef %0, i32 noundef %1, i32 noundef %2, i32 noundef %3) #0 {
  %5 = alloca i8, align 1
  %6 = alloca ptr, align 8
  %7 = alloca i32, align 4
  %8 = alloca i32, align 4
  %9 = alloca i32, align 4
  %10 = alloca ptr, align 8
  %11 = alloca i32, align 4
  store ptr %0, ptr %6, align 8, !tbaa !7
  store i32 %1, ptr %7, align 4, !tbaa !3
  store i32 %2, ptr %8, align 4, !tbaa !3
  store i32 %3, ptr %9, align 4, !tbaa !3
  call void @llvm.lifetime.start.p0(i64 8, ptr %10) #9
  %12 = load ptr, ptr %6, align 8, !tbaa !7
  store ptr %12, ptr %10, align 8, !tbaa !63
  %13 = load i32, ptr %9, align 4, !tbaa !3
  %14 = load ptr, ptr %10, align 8, !tbaa !63
  %15 = getelementptr inbounds nuw %struct.NewTrieAndStatus, ptr %14, i32 0, i32 0
  %16 = load ptr, ptr %15, align 8, !tbaa !55
  %17 = getelementptr inbounds nuw %struct.UTrie2, ptr %16, i32 0, i32 7
  %18 = load i32, ptr %17, align 4, !tbaa !17
  %19 = icmp ne i32 %13, %18
  br i1 %19, label %20, label %54

20:                                               ; preds = %4
  %21 = load ptr, ptr %10, align 8, !tbaa !63
  %22 = getelementptr inbounds nuw %struct.NewTrieAndStatus, ptr %21, i32 0, i32 2
  %23 = load i8, ptr %22, align 4, !tbaa !57
  %24 = icmp ne i8 %23, 0
  br i1 %24, label %25, label %28

25:                                               ; preds = %20
  %26 = load i32, ptr %8, align 4, !tbaa !3
  %27 = add nsw i32 %26, -1
  store i32 %27, ptr %8, align 4, !tbaa !3
  br label %28

28:                                               ; preds = %25, %20
  %29 = load i32, ptr %7, align 4, !tbaa !3
  %30 = load i32, ptr %8, align 4, !tbaa !3
  %31 = icmp eq i32 %29, %30
  br i1 %31, label %32, label %40

32:                                               ; preds = %28
  %33 = load ptr, ptr %10, align 8, !tbaa !63
  %34 = getelementptr inbounds nuw %struct.NewTrieAndStatus, ptr %33, i32 0, i32 0
  %35 = load ptr, ptr %34, align 8, !tbaa !55
  %36 = load i32, ptr %7, align 4, !tbaa !3
  %37 = load i32, ptr %9, align 4, !tbaa !3
  %38 = load ptr, ptr %10, align 8, !tbaa !63
  %39 = getelementptr inbounds nuw %struct.NewTrieAndStatus, ptr %38, i32 0, i32 1
  call void @utrie2_set32_77(ptr noundef %35, i32 noundef %36, i32 noundef %37, ptr noundef %39)
  br label %49

40:                                               ; preds = %28
  %41 = load ptr, ptr %10, align 8, !tbaa !63
  %42 = getelementptr inbounds nuw %struct.NewTrieAndStatus, ptr %41, i32 0, i32 0
  %43 = load ptr, ptr %42, align 8, !tbaa !55
  %44 = load i32, ptr %7, align 4, !tbaa !3
  %45 = load i32, ptr %8, align 4, !tbaa !3
  %46 = load i32, ptr %9, align 4, !tbaa !3
  %47 = load ptr, ptr %10, align 8, !tbaa !63
  %48 = getelementptr inbounds nuw %struct.NewTrieAndStatus, ptr %47, i32 0, i32 1
  call void @utrie2_setRange32_77(ptr noundef %43, i32 noundef %44, i32 noundef %45, i32 noundef %46, i8 noundef signext 1, ptr noundef %48)
  br label %49

49:                                               ; preds = %40, %32
  %50 = load ptr, ptr %10, align 8, !tbaa !63
  %51 = getelementptr inbounds nuw %struct.NewTrieAndStatus, ptr %50, i32 0, i32 1
  %52 = load i32, ptr %51, align 8, !tbaa !58
  %53 = call noundef signext i8 @_ZL9U_SUCCESS10UErrorCode(i32 noundef %52)
  store i8 %53, ptr %5, align 1
  store i32 1, ptr %11, align 4
  br label %55

54:                                               ; preds = %4
  store i8 1, ptr %5, align 1
  store i32 1, ptr %11, align 4
  br label %55

55:                                               ; preds = %54, %49
  call void @llvm.lifetime.end.p0(i64 8, ptr %10) #9
  %56 = load i8, ptr %5, align 1
  ret i8 %56
}