; Function Attrs: mustprogress uwtable
define internal noundef signext range(i8 0, 2) i8 @_ZL13copyEnumRangePKviij(ptr noundef captures(none) %0, i32 noundef %1, i32 noundef %2, i32 noundef %3) #0 {
  %5 = load ptr, ptr %0, align 8, !tbaa !48
  %6 = getelementptr inbounds nuw i8, ptr %5, i64 36
  %7 = load i32, ptr %6, align 4, !tbaa !7
  %.not = icmp eq i32 %3, %7
  br i1 %.not, label %44, label %8

8:                                                ; preds = %4
  %9 = getelementptr inbounds nuw i8, ptr %0, i64 12
  %10 = load i8, ptr %9, align 4, !tbaa !51
  %.not20 = icmp ne i8 %10, 0
  %11 = sext i1 %.not20 to i32
  %spec.select = add nsw i32 %2, %11
  %12 = icmp eq i32 %1, %spec.select
  %13 = getelementptr inbounds nuw i8, ptr %0, i64 8
  br i1 %12, label %14, label %39

14:                                               ; preds = %8
  %15 = load i32, ptr %13, align 4, !tbaa !3
  %16 = icmp slt i32 %15, 1
  br i1 %16, label %17, label %utrie2_set32_77.exit

17:                                               ; preds = %14
  %18 = icmp ugt i32 %1, 1114111
  br i1 %18, label %19, label %20

19:                                               ; preds = %17
  store i32 1, ptr %13, align 4, !tbaa !3
  br label %utrie2_set32_77.exit

20:                                               ; preds = %17
  %21 = getelementptr inbounds nuw i8, ptr %5, i64 72
  %22 = load ptr, ptr %21, align 8, !tbaa !17
  %23 = icmp eq ptr %22, null
  br i1 %23, label %27, label %24

24:                                               ; preds = %20
  %25 = getelementptr inbounds nuw i8, ptr %22, i64 144172
  %26 = load i8, ptr %25, align 4, !tbaa !25
  %.not.i.i = icmp eq i8 %26, 0
  br i1 %.not.i.i, label %28, label %27

27:                                               ; preds = %24, %20
  store i32 30, ptr %13, align 4, !tbaa !3
  br label %utrie2_set32_77.exit

28:                                               ; preds = %24
  %29 = tail call fastcc noundef i32 @_ZL12getDataBlockP9UNewTrie2ia(ptr noundef %22, i32 noundef %1, i8 noundef signext 1)
  %30 = icmp slt i32 %29, 0
  br i1 %30, label %31, label %32

31:                                               ; preds = %28
  store i32 7, ptr %13, align 4, !tbaa !3
  br label %utrie2_set32_77.exit

32:                                               ; preds = %28
  %33 = getelementptr inbounds nuw i8, ptr %22, i64 144128
  %34 = load ptr, ptr %33, align 8, !tbaa !18
  %35 = and i32 %1, 31
  %36 = add nuw nsw i32 %29, %35
  %37 = zext nneg i32 %36 to i64
  %38 = getelementptr inbounds nuw i32, ptr %34, i64 %37
  store i32 %3, ptr %38, align 4, !tbaa !26
  br label %utrie2_set32_77.exit

39:                                               ; preds = %8
  tail call void @utrie2_setRange32_77(ptr noundef nonnull %5, i32 noundef %1, i32 noundef %spec.select, i32 noundef %3, i8 noundef signext 1, ptr noundef nonnull %13)
  br label %utrie2_set32_77.exit

utrie2_set32_77.exit:                             ; preds = %32, %31, %27, %19, %14, %39
  %40 = getelementptr inbounds nuw i8, ptr %0, i64 8
  %41 = load i32, ptr %40, align 8, !tbaa !52
  %42 = icmp slt i32 %41, 1
  %43 = zext i1 %42 to i8
  br label %44

44:                                               ; preds = %4, %utrie2_set32_77.exit
  %.0 = phi i8 [ %43, %utrie2_set32_77.exit ], [ 1, %4 ]
  ret i8 %.0
}